target datalayout = "e-m:e-p270:32:32-p271:32:32-p272:64:64-i64:64-i128:128-f80:128-n8:16:32:64-S128"
target triple = "x86_64-pc-linux-gnu"

%struct.evp_Encode_Ctx_st = type { i32, i32, [80 x i8], i32, i32 }

; Function Attrs: nounwind uwtable
define void @EVP_EncodeInit(ptr noundef %0) #0 {
  %2 = alloca ptr, align 8
  store ptr %0, ptr %2, align 8, !tbaa !3
  %3 = load ptr, ptr %2, align 8, !tbaa !3
  %4 = getelementptr inbounds nuw %struct.evp_Encode_Ctx_st, ptr %3, i32 0, i32 1
  store i32 48, ptr %4, align 4, !tbaa !13
  %5 = load ptr, ptr %2, align 8, !tbaa !3
  %6 = getelementptr inbounds nuw %struct.evp_Encode_Ctx_st, ptr %5, i32 0, i32 0
  store i32 0, ptr %6, align 4, !tbaa !8
  %7 = load ptr, ptr %2, align 8, !tbaa !3
  %8 = getelementptr inbounds nuw %struct.evp_Encode_Ctx_st, ptr %7, i32 0, i32 3
  store i32 0, ptr %8, align 4, !tbaa !14
  %9 = load ptr, ptr %2, align 8, !tbaa !3
  %10 = getelementptr inbounds nuw %struct.evp_Encode_Ctx_st, ptr %9, i32 0, i32 4
  store i32 0, ptr %10, align 4, !tbaa !12
  ret void
}