; Function Attrs: mustprogress nofree norecurse nosync nounwind willreturn memory(argmem: write) uwtable
define void @EVP_EncodeInit(ptr noundef writeonly captures(none) initializes((0, 8), (88, 96)) %0) local_unnamed_addr #5 {
  %2 = getelementptr inbounds nuw i8, ptr %0, i64 4
  store i32 48, ptr %2, align 4, !tbaa !9
  store i32 0, ptr %0, align 4, !tbaa !3
  %3 = getelementptr inbounds nuw i8, ptr %0, i64 88
  store i32 0, ptr %3, align 4, !tbaa !10
  %4 = getelementptr inbounds nuw i8, ptr %0, i64 92
  store i32 0, ptr %4, align 4, !tbaa !8
  ret void
}